target datalayout = "e-m:e-p270:32:32-p271:32:32-p272:64:64-i64:64-i128:128-f80:128-n8:16:32:64-S128"
target triple = "x86_64-pc-linux-gnu"

%struct.dir_iterator_int = type { %struct.dir_iterator, i64, i64, ptr, i32 }
%struct.dir_iterator = type { %struct.strbuf, ptr, ptr, %struct.stat }
%struct.strbuf = type { i64, i64, ptr }
%struct.stat = type { i64, i64, i64, i32, i32, i32, i32, i64, i64, i64, i64, %struct.timespec, %struct.timespec, %struct.timespec, [3 x i64] }
%struct.timespec = type { i64, i64 }
%struct.dir_iterator_level = type { ptr, %struct.string_list, i64, i64 }
%struct.string_list = type { ptr, i64, i64, i8, ptr }

@.str = private unnamed_addr constant [29 x i8] c"error closing directory '%s'\00", align 1
@.str.2 = private unnamed_addr constant [11 x i8] c"./strbuf.h\00", align 1
@.str.3 = private unnamed_addr constant [30 x i8] c"strbuf_setlen() beyond buffer\00", align 1
@strbuf_slopbuf = external global [0 x i8], align 1

; Function Attrs: inlinehint nounwind uwtable
define internal void @strbuf_setlen(ptr noundef %0, i64 noundef %1) #3 {
  %3 = alloca ptr, align 8
  %4 = alloca i64, align 8
  store ptr %0, ptr %3, align 8, !tbaa !44
  store i64 %1, ptr %4, align 8, !tbaa !46
  %5 = load i64, ptr %4, align 8, !tbaa !46
  %6 = load ptr, ptr %3, align 8, !tbaa !44
  %7 = getelementptr inbounds nuw %struct.strbuf, ptr %6, i32 0, i32 0
  %8 = load i64, ptr %7, align 8, !tbaa !47
  %9 = icmp ne i64 %8, 0
  br i1 %9, label %10, label %15

10:                                               ; preds = %2
  %11 = load ptr, ptr %3, align 8, !tbaa !44
  %12 = getelementptr inbounds nuw %struct.strbuf, ptr %11, i32 0, i32 0
  %13 = load i64, ptr %12, align 8, !tbaa !47
  %14 = sub i64 %13, 1
  br label %16

15:                                               ; preds = %2
  br label %16

16:                                               ; preds = %15, %10
  %17 = phi i64 [ %14, %10 ], [ 0, %15 ]
  %18 = icmp ugt i64 %5, %17
  br i1 %18, label %19, label %20

19:                                               ; preds = %16
  call void (ptr, i32, ptr, ...) @BUG_fl(ptr noundef @.str.2, i32 noundef 167, ptr noundef @.str.3) #10
  unreachable

20:                                               ; preds = %16
  %21 = load i64, ptr %4, align 8, !tbaa !46
  %22 = load ptr, ptr %3, align 8, !tbaa !44
  %23 = getelementptr inbounds nuw %struct.strbuf, ptr %22, i32 0, i32 1
  store i64 %21, ptr %23, align 8, !tbaa !48
  %24 = load ptr, ptr %3, align 8, !tbaa !44
  %25 = getelementptr inbounds nuw %struct.strbuf, ptr %24, i32 0, i32 2
  %26 = load ptr, ptr %25, align 8, !tbaa !49
  %27 = icmp ne ptr %26, @strbuf_slopbuf
  br i1 %27, label %28, label %34

28:                                               ; preds = %20
  %29 = load ptr, ptr %3, align 8, !tbaa !44
  %30 = getelementptr inbounds nuw %struct.strbuf, ptr %29, i32 0, i32 2
  %31 = load ptr, ptr %30, align 8, !tbaa !49
  %32 = load i64, ptr %4, align 8, !tbaa !46
  %33 = getelementptr inbounds nuw i8, ptr %31, i64 %32
  store i8 0, ptr %33, align 1, !tbaa !43
  br label %35

34:                                               ; preds = %20
  br label %35

35:                                               ; preds = %34, %28
  ret void
}

; Function Attrs: nounwind uwtable
define dso_local i32 @dir_iterator_abort(ptr noundef %0) #0 {
  %2 = alloca ptr, align 8
  %3 = alloca ptr, align 8
  %4 = alloca ptr, align 8
  %5 = alloca i32, align 4
  store ptr %0, ptr %2, align 8, !tbaa !4
  call void @llvm.lifetime.start.p0(i64 8, ptr %3) #8
  %6 = load ptr, ptr %2, align 8, !tbaa !4
  store ptr %6, ptr %3, align 8, !tbaa !9
  br label %7

7:                                                ; preds = %50, %1
  %8 = load ptr, ptr %3, align 8, !tbaa !9
  %9 = getelementptr inbounds nuw %struct.dir_iterator_int, ptr %8, i32 0, i32 1
  %10 = load i64, ptr %9, align 8, !tbaa !23
  %11 = icmp ne i64 %10, 0
  br i1 %11, label %12, label %55

12:                                               ; preds = %7
  call void @llvm.lifetime.start.p0(i64 8, ptr %4) #8
  %13 = load ptr, ptr %3, align 8, !tbaa !9
  %14 = getelementptr inbounds nuw %struct.dir_iterator_int, ptr %13, i32 0, i32 3
  %15 = load ptr, ptr %14, align 8, !tbaa !24
  %16 = load ptr, ptr %3, align 8, !tbaa !9
  %17 = getelementptr inbounds nuw %struct.dir_iterator_int, ptr %16, i32 0, i32 1
  %18 = load i64, ptr %17, align 8, !tbaa !23
  %19 = sub i64 %18, 1
  %20 = getelementptr inbounds nuw %struct.dir_iterator_level, ptr %15, i64 %19
  store ptr %20, ptr %4, align 8, !tbaa !25
  %21 = load ptr, ptr %4, align 8, !tbaa !25
  %22 = getelementptr inbounds nuw %struct.dir_iterator_level, ptr %21, i32 0, i32 0
  %23 = load ptr, ptr %22, align 8, !tbaa !31
  %24 = icmp ne ptr %23, null
  br i1 %24, label %25, label %47

25:                                               ; preds = %12
  %26 = load ptr, ptr %4, align 8, !tbaa !25
  %27 = getelementptr inbounds nuw %struct.dir_iterator_level, ptr %26, i32 0, i32 0
  %28 = load ptr, ptr %27, align 8, !tbaa !31
  %29 = call i32 @closedir(ptr noundef %28)
  %30 = icmp ne i32 %29, 0
  br i1 %30, label %31, label %47

31:                                               ; preds = %25
  call void @llvm.lifetime.start.p0(i64 4, ptr %5) #8
  %32 = call ptr @__errno_location() #9
  %33 = load i32, ptr %32, align 4, !tbaa !21
  store i32 %33, ptr %5, align 4, !tbaa !21
  %34 = load ptr, ptr %3, align 8, !tbaa !9
  %35 = getelementptr inbounds nuw %struct.dir_iterator_int, ptr %34, i32 0, i32 0
  %36 = getelementptr inbounds nuw %struct.dir_iterator, ptr %35, i32 0, i32 0
  %37 = load ptr, ptr %4, align 8, !tbaa !25
  %38 = getelementptr inbounds nuw %struct.dir_iterator_level, ptr %37, i32 0, i32 3
  %39 = load i64, ptr %38, align 8, !tbaa !26
  call void @strbuf_setlen(ptr noundef %36, i64 noundef %39)
  %40 = load i32, ptr %5, align 4, !tbaa !21
  %41 = call ptr @__errno_location() #9
  store i32 %40, ptr %41, align 4, !tbaa !21
  %42 = load ptr, ptr %3, align 8, !tbaa !9
  %43 = getelementptr inbounds nuw %struct.dir_iterator_int, ptr %42, i32 0, i32 0
  %44 = getelementptr inbounds nuw %struct.dir_iterator, ptr %43, i32 0, i32 0
  %45 = getelementptr inbounds nuw %struct.strbuf, ptr %44, i32 0, i32 2
  %46 = load ptr, ptr %45, align 8, !tbaa !32
  call void (ptr, ...) @warning_errno(ptr noundef @.str, ptr noundef %46)
  call void @llvm.lifetime.end.p0(i64 4, ptr %5) #8
  br label %47

47:                                               ; preds = %31, %25, %12
  %48 = load ptr, ptr %4, align 8, !tbaa !25
  %49 = getelementptr inbounds nuw %struct.dir_iterator_level, ptr %48, i32 0, i32 1
  call void @string_list_clear(ptr noundef %49, i32 noundef 0)
  call void @llvm.lifetime.end.p0(i64 8, ptr %4) #8
  br label %50

50:                                               ; preds = %47
  %51 = load ptr, ptr %3, align 8, !tbaa !9
  %52 = getelementptr inbounds nuw %struct.dir_iterator_int, ptr %51, i32 0, i32 1
  %53 = load i64, ptr %52, align 8, !tbaa !23
  %54 = add i64 %53, -1
  store i64 %54, ptr %52, align 8, !tbaa !23
  br label %7, !llvm.loop !53

55:                                               ; preds = %7
  %56 = load ptr, ptr %3, align 8, !tbaa !9
  %57 = getelementptr inbounds nuw %struct.dir_iterator_int, ptr %56, i32 0, i32 3
  %58 = load ptr, ptr %57, align 8, !tbaa !24
  call void @free(ptr noundef %58) #8
  %59 = load ptr, ptr %3, align 8, !tbaa !9
  %60 = getelementptr inbounds nuw %struct.dir_iterator_int, ptr %59, i32 0, i32 0
  %61 = getelementptr inbounds nuw %struct.dir_iterator, ptr %60, i32 0, i32 0
  call void @strbuf_release(ptr noundef %61)
  %62 = load ptr, ptr %3, align 8, !tbaa !9
  call void @free(ptr noundef %62) #8
  call void @llvm.lifetime.end.p0(i64 8, ptr %3) #8
  ret i32 -1
}