; Function Attrs: nounwind uwtable
define dso_local noundef i32 @dir_iterator_abort(ptr noundef %0) local_unnamed_addr #0 {
  %2 = getelementptr inbounds nuw i8, ptr %0, i64 184
  %3 = load i64, ptr %2, align 8, !tbaa !17
  %.not17 = icmp eq i64 %3, 0
  br i1 %.not17, label %._crit_edge, label %.lr.ph

.lr.ph:                                           ; preds = %1
  %4 = getelementptr inbounds nuw i8, ptr %0, i64 200
  %5 = getelementptr inbounds nuw i8, ptr %0, i64 8
  %6 = getelementptr inbounds nuw i8, ptr %0, i64 16
  br label %7

7:                                                ; preds = %.lr.ph, %28
  %8 = phi i64 [ %3, %.lr.ph ], [ %31, %28 ]
  %9 = load ptr, ptr %4, align 8, !tbaa !19
  %10 = getelementptr %struct.dir_iterator_level, ptr %9, i64 %8
  %11 = getelementptr i8, ptr %10, i64 -64
  %12 = load ptr, ptr %11, align 8, !tbaa !31
  %.not15 = icmp eq ptr %12, null
  br i1 %.not15, label %28, label %13

13:                                               ; preds = %7
  %14 = tail call i32 @closedir(ptr noundef nonnull %12)
  %.not16 = icmp eq i32 %14, 0
  br i1 %.not16, label %28, label %15

15:                                               ; preds = %13
  %16 = tail call ptr @__errno_location() #10
  %17 = load i32, ptr %16, align 4, !tbaa !32
  %18 = getelementptr i8, ptr %10, i64 -8
  %19 = load i64, ptr %18, align 8, !tbaa !26
  %20 = load i64, ptr %0, align 8, !tbaa !23
  %spec.select.i = tail call i64 @llvm.usub.sat.i64(i64 %20, i64 1)
  %21 = icmp ugt i64 %19, %spec.select.i
  br i1 %21, label %22, label %23

22:                                               ; preds = %15
  tail call void (ptr, i32, ptr, ...) @BUG_fl(ptr noundef nonnull @.str.2, i32 noundef 167, ptr noundef nonnull @.str.3) #8
  unreachable

23:                                               ; preds = %15
  store i64 %19, ptr %5, align 8, !tbaa !24
  %24 = load ptr, ptr %6, align 8, !tbaa !25
  %.not9.i = icmp eq ptr %24, @strbuf_slopbuf
  br i1 %.not9.i, label %strbuf_setlen.exit, label %25

25:                                               ; preds = %23
  %26 = getelementptr inbounds nuw i8, ptr %24, i64 %19
  store i8 0, ptr %26, align 1, !tbaa !22
  %.pre = load ptr, ptr %6, align 8, !tbaa !20
  br label %strbuf_setlen.exit

strbuf_setlen.exit:                               ; preds = %23, %25
  %27 = phi ptr [ @strbuf_slopbuf, %23 ], [ %.pre, %25 ]
  store i32 %17, ptr %16, align 4, !tbaa !32
  tail call void (ptr, ...) @warning_errno(ptr noundef nonnull @.str, ptr noundef %27) #9
  br label %28

28:                                               ; preds = %strbuf_setlen.exit, %13, %7
  %29 = getelementptr i8, ptr %10, i64 -56
  tail call void @string_list_clear(ptr noundef %29, i32 noundef 0) #9
  %30 = load i64, ptr %2, align 8, !tbaa !17
  %31 = add i64 %30, -1
  store i64 %31, ptr %2, align 8, !tbaa !17
  %.not = icmp eq i64 %31, 0
  br i1 %.not, label %._crit_edge, label %7, !llvm.loop !41

._crit_edge:                                      ; preds = %28, %1
  %32 = getelementptr inbounds nuw i8, ptr %0, i64 200
  %33 = load ptr, ptr %32, align 8, !tbaa !19
  tail call void @free(ptr noundef %33) #9
  tail call void @strbuf_release(ptr noundef nonnull %0) #9
  tail call void @free(ptr noundef nonnull %0) #9
  ret i32 -1
}